(lp1
(iutils
SymbolTable
p2
(dp3
S'is_for_table'
p4
I00
sS'parent'
p5
NsS'is_func_table'
p6
I00
sS'label'
p7
I0
sS'func_offset'
p8
I-4
sS'offset'
p9
I3
sS'table'
p10
(dp11
S'fun'
p12
(dp13
S'func_dict'
p14
(dp15
S'symbol_table'
p16
I1
ssS'func_signature'
p17
(lp18
(lp19
(dp20
S'int'
p21
(lp22
S'a'
aS'b'
asaa(lp23
(dp24
S'int'
p25
(lp26
S'x'
asa(dp27
S'int'
p28
(lp29
S'y'
asa(dp30
S'int'
p31
(lp32
S'z'
asaasS'type'
p33
S'func'
p34
sg9
I0
ssS'main'
p35
(dp36
g14
(dp37
g16
I5
ssg17
(lp38
(lp39
a(lp40
asg33
g34
sg9
I2
ssS'fun2'
p41
(dp42
g14
(dp43
g16
I4
ssg17
(lp44
(lp45
(dp46
S'int'
p47
(lp48
S'a'
aS'b'
asaa(lp49
S'int'
p50
aasg33
g34
sg9
I1
sssS'children'
p51
(lp52
(iutils
SymbolTable
p53
(dp54
g4
I00
sg5
g2
sg6
I00
sg7
I1
sg8
I-12
sg9
I20
sg10
(dp55
S'a'
(dp56
S'constant'
p57
I00
sg33
g21
sg9
I-8
ssS'x'
(dp58
g57
I00
sg33
g25
sg9
I0
ssS'b'
(dp59
g57
I00
sg33
g21
sg9
I-12
ssS'y'
(dp60
g57
I00
sg33
g28
sg9
I4
ssS'z'
(dp61
g57
I00
sg33
g31
sg9
I8
sssg51
(lp62
(iutils
SymbolTable
p63
(dp64
g4
I00
sg5
g53
sg6
I00
sg7
I2
sg8
I-4
sg9
I16
sg10
(dp65
S'TEMP_VAR0'
p66
(dp67
g57
I00
sg33
g21
sg9
I12
sssg51
(lp68
sS'types'
p69
(dp70
sba(iutils
SymbolTable
p71
(dp72
g4
I00
sg5
g53
sg6
I00
sg7
I3
sg8
I-4
sg9
I20
sg10
(dp73
S'TEMP_VAR1'
p74
(dp75
g57
I00
sg33
g21
sg9
I16
sssg51
(lp76
sg69
(dp77
sbasg69
(dp78
sba(iutils
SymbolTable
p79
(dp80
g4
I00
sg5
g2
sg6
I00
sg7
I4
sg8
I-12
sg9
I0
sg10
(dp81
S'a'
(dp82
g57
I00
sg33
g47
sg9
I-8
ssS'b'
(dp83
g57
I00
sg33
g47
sg9
I-12
sssg51
(lp84
sg69
(dp85
sba(iutils
SymbolTable
p86
(dp87
g4
I00
sg5
g2
sg6
I00
sg7
I5
sg8
I-4
sg9
I44
sg10
(dp88
S'a'
(dp89
g57
I00
sg33
S'int'
p90
sS'value'
p91
S'2'
sg9
I0
ssS'TEMP_VAR8'
p92
(dp93
g57
I00
sg33
g50
sg9
I40
ssS'c'
(dp94
g57
I00
sg33
S'int'
p95
sg91
I0
sg9
I12
ssS'b'
(dp96
g57
I00
sg33
S'int'
p97
sg9
I4
ssS'd'
(dp98
g57
I00
sg33
g95
sg91
I0
sg9
I8
ssS'TEMP_VAR3'
p99
(dp100
g57
I00
sg33
g25
sg9
I20
ssS'TEMP_VAR2'
p101
(dp102
g57
I00
sg33
g25
sg9
I16
ssS'TEMP_VAR5'
p103
(dp104
g57
I00
sg33
g28
sg9
I28
ssS'TEMP_VAR4'
p105
(dp106
g57
I00
sg33
g28
sg9
I24
ssS'TEMP_VAR7'
p107
(dp108
g57
I00
sg33
g31
sg9
I36
ssS'TEMP_VAR6'
p109
(dp110
g57
I00
sg33
g31
sg9
I32
sssg51
(lp111
sg69
(dp112
sbasg69
(dp113
sbag53
ag63
ag71
ag79
ag86
a.