(lp1
(iutils
SymbolTable
p2
(dp3
S'is_for_table'
p4
I00
sS'parent'
p5
NsS'is_func_table'
p6
I00
sS'label'
p7
I0
sS'func_offset'
p8
I-4
sS'offset'
p9
I2
sS'table'
p10
(dp11
S'preorder'
p12
(dp13
S'func_dict'
p14
(dp15
S'symbol_table'
p16
I1
ssS'func_signature'
p17
(lp18
(lp19
(dp20
S'ttype_Node*'
p21
(lp22
S'node'
p23
asaa(lp24
asS'type'
p25
S'func'
p26
sg9
I0
ssS'main'
p27
(dp28
g14
(dp29
g16
I3
ssg17
(lp30
(lp31
a(lp32
asg25
g26
sg9
I1
sssS'children'
p33
(lp34
(iutils
SymbolTable
p35
(dp36
g4
I00
sg5
g2
sg6
I00
sg7
I1
sg8
I-8
sg9
I12
sg10
(dp37
g23
(dp38
S'constant'
p39
I00
sg25
S"Struct{'value':'int','right':'ttype_Node*','left':'ttype_Node*'}*"
p40
sg9
I-8
ssS'TEMP_VAR0'
p41
(dp42
g39
I00
sg25
S'ttype_Node*'
p43
sg9
I0
ssS'TEMP_VAR2'
p44
(dp45
g39
I00
sg25
S'ttype_Node*'
p46
sg9
I8
ssS'TEMP_VAR1'
p47
(dp48
g39
I00
sg25
S'int'
p49
sg9
I4
sssg33
(lp50
(iutils
SymbolTable
p51
(dp52
g4
I00
sg5
g35
sg6
I00
sg7
I2
sg8
I-4
sg9
I12
sg10
(dp53
sg33
(lp54
sS'types'
p55
(dp56
sbasg55
(dp57
sba(iutils
SymbolTable
p58
(dp59
g4
I00
sg5
g2
sg6
I00
sg7
I3
sg8
I-4
sg9
I104
sg10
(dp60
S'curr'
p61
(dp62
g39
I00
sg25
S"Struct{'value':'int','right':'ttype_Node*','left':'ttype_Node*'}*"
p63
sg9
I0
ssS'TEMP_VAR20'
p64
(dp65
g39
I00
sg25
S'ttype_Node*'
p66
sg9
I100
ssS'TEMP_VAR19'
p67
(dp68
g39
I00
sg25
S'ttype_Node*'
p69
sg9
I96
ssS'TEMP_VAR18'
p70
(dp71
g39
I00
sg25
S'int'
p72
sg9
I92
ssS'TEMP_VAR11'
p73
(dp74
g39
I00
sg25
S'ttype_Node*'
p75
sg9
I64
ssS'TEMP_VAR10'
p76
(dp77
g39
I00
sg25
S'ttype_Node*'
p78
sg9
I60
ssS'TEMP_VAR13'
p79
(dp80
g39
I00
sg25
S'ttype_Node*'
p81
sg9
I72
ssS'TEMP_VAR12'
p82
(dp83
g39
I00
sg25
S'int'
p84
sg9
I68
ssS'TEMP_VAR15'
p85
(dp86
g39
I00
sg25
S'int'
p87
sg9
I80
ssS'TEMP_VAR14'
p88
(dp89
g39
I00
sg25
S'ttype_Node*'
p90
sg9
I76
ssS'TEMP_VAR17'
p91
(dp92
g39
I00
sg25
S'ttype_Node*'
p93
sg9
I88
ssS'TEMP_VAR16'
p94
(dp95
g39
I00
sg25
S'ttype_Node*'
p96
sg9
I84
ssS'TEMP_VAR9'
p97
(dp98
g39
I00
sg25
S'int'
p99
sg9
I56
ssS'TEMP_VAR8'
p100
(dp101
g39
I00
sg25
S'ttype_Node*'
p102
sg9
I52
ssS'node5'
p103
(dp104
g39
I00
sg25
S"Struct{'value':'int','right':'ttype_Node*','left':'ttype_Node*'}*"
p105
sg9
I20
ssS'TEMP_VAR3'
p106
(dp107
g39
I00
sg25
S'int'
p108
sg9
I32
ssS'TEMP_VAR5'
p109
(dp110
g39
I00
sg25
S'ttype_Node*'
p111
sg9
I40
ssS'TEMP_VAR4'
p112
(dp113
g39
I00
sg25
S'ttype_Node*'
p114
sg9
I36
ssS'TEMP_VAR7'
p115
(dp116
g39
I00
sg25
S'ttype_Node*'
p117
sg9
I48
ssS'TEMP_VAR6'
p118
(dp119
g39
I00
sg25
S'int'
p120
sg9
I44
ssS'node1'
p121
(dp122
g39
I00
sg25
S"Struct{'value':'int','right':'ttype_Node*','left':'ttype_Node*'}*"
p123
sg9
I28
ssS'node3'
p124
(dp125
g39
I00
sg25
S"Struct{'value':'int','right':'ttype_Node*','left':'ttype_Node*'}*"
p126
sg9
I12
ssS'node2'
p127
(dp128
g39
I00
sg25
S"Struct{'value':'int','right':'ttype_Node*','left':'ttype_Node*'}*"
p129
sg9
I8
ssS'root'
p130
(dp131
g39
I00
sg25
S"Struct{'value':'int','right':'ttype_Node*','left':'ttype_Node*'}*"
p132
sg9
I4
ssS'node4'
p133
(dp134
g39
I00
sg25
S"Struct{'value':'int','right':'ttype_Node*','left':'ttype_Node*'}*"
p135
sg9
I16
ssS'node6'
p136
(dp137
g39
I00
sg25
S"Struct{'value':'int','right':'ttype_Node*','left':'ttype_Node*'}*"
p138
sg9
I24
sssg33
(lp139
sg55
(dp140
sbasg55
(dp141
S'ttype_Node'
p142
S"Struct{'value':'int','right':'ttype_Node*','left':'ttype_Node*'}"
p143
ssbag35
ag51
ag58
a.