(lp1
(iutils
SymbolTable
p2
(dp3
S'is_for_table'
p4
I00
sS'parent'
p5
NsS'is_func_table'
p6
I00
sS'label'
p7
I0
sS'func_offset'
p8
I-4
sS'offset'
p9
I3
sS'table'
p10
(dp11
S'is_odd'
p12
(dp13
S'func_dict'
p14
(dp15
S'symbol_table'
p16
I6
ssS'func_signature'
p17
(lp18
(lp19
(dp20
S'int'
p21
(lp22
S'n'
asaa(lp23
S'int'
p24
aasS'type'
p25
S'func'
p26
sg9
I1
ssS'main'
p27
(dp28
g14
(dp29
g16
I9
ssg17
(lp30
(lp31
a(lp32
asg25
g26
sg9
I2
ssS'is_even'
p33
(dp34
g14
(dp35
g16
I3
ssg17
(lp36
(lp37
(dp38
S'int'
p39
(lp40
S'n'
asaa(lp41
S'int'
p42
aasg25
g26
sg9
I0
sssS'children'
p43
(lp44
(iutils
SymbolTable
p45
(dp46
g4
I00
sg5
g2
sg6
I01
sg7
I1
sg8
I-4
sg9
I0
sg10
(dp47
sg43
(lp48
sS'types'
p49
(dp50
sba(iutils
SymbolTable
p51
(dp52
g4
I00
sg5
g2
sg6
I01
sg7
I2
sg8
I-4
sg9
I0
sg10
(dp53
sg43
(lp54
sg49
(dp55
sba(iutils
SymbolTable
p56
(dp57
g4
I00
sg5
g2
sg6
I00
sg7
I3
sg8
I-8
sg9
I8
sg10
(dp58
S'n'
(dp59
S'constant'
p60
I00
sg25
g39
sg9
I-8
sssg43
(lp61
(iutils
SymbolTable
p62
(dp63
g4
I00
sg5
g56
sg6
I00
sg7
I4
sg8
I-4
sg9
I0
sg10
(dp64
sg43
(lp65
sg49
(dp66
sba(iutils
SymbolTable
p67
(dp68
g4
I00
sg5
g56
sg6
I00
sg7
I5
sg8
I-4
sg9
I8
sg10
(dp69
S'TEMP_VAR1'
p70
(dp71
g60
I00
sg25
S'int'
p72
sg9
I4
ssS'TEMP_VAR0'
p73
(dp74
g60
I00
sg25
g39
sg9
I0
sssg43
(lp75
sg49
(dp76
sbasg49
(dp77
sba(iutils
SymbolTable
p78
(dp79
g4
I00
sg5
g2
sg6
I00
sg7
I6
sg8
I-8
sg9
I8
sg10
(dp80
S'n'
(dp81
g60
I00
sg25
g21
sg9
I-8
sssg43
(lp82
(iutils
SymbolTable
p83
(dp84
g4
I00
sg5
g78
sg6
I00
sg7
I7
sg8
I-4
sg9
I0
sg10
(dp85
sg43
(lp86
sg49
(dp87
sba(iutils
SymbolTable
p88
(dp89
g4
I00
sg5
g78
sg6
I00
sg7
I8
sg8
I-4
sg9
I8
sg10
(dp90
S'TEMP_VAR3'
p91
(dp92
g60
I00
sg25
g42
sg9
I4
ssS'TEMP_VAR2'
p93
(dp94
g60
I00
sg25
g21
sg9
I0
sssg43
(lp95
sg49
(dp96
sbasg49
(dp97
sba(iutils
SymbolTable
p98
(dp99
g4
I00
sg5
g2
sg6
I00
sg7
I9
sg8
I-4
sg9
I8
sg10
(dp100
S'TEMP_VAR5'
p101
(dp102
g60
I00
sg25
g24
sg9
I4
ssS'TEMP_VAR4'
p103
(dp104
g60
I00
sg25
g42
sg9
I0
sssg43
(lp105
sg49
(dp106
sbasg49
(dp107
sbag45
ag51
ag56
ag62
ag67
ag78
ag83
ag88
ag98
a.