(lp1
(iutils
SymbolTable
p2
(dp3
S'is_for_table'
p4
I00
sS'parent'
p5
NsS'is_func_table'
p6
I00
sS'label'
p7
I0
sS'func_offset'
p8
I-4
sS'offset'
p9
I2
sS'table'
p10
(dp11
S'sort'
p12
(dp13
S'func_dict'
p14
(dp15
S'symbol_table'
p16
I1
ssS'func_signature'
p17
(lp18
(lp19
(dp20
S'Array(NULL, int)'
p21
(lp22
S'a'
asa(dp23
S'int'
p24
(lp25
S'n'
asaa(lp26
asS'type'
p27
S'func'
p28
sg9
I0
ssS'main'
p29
(dp30
g14
(dp31
g16
I5
ssg17
(lp32
(lp33
a(lp34
asg27
g28
sg9
I1
sssS'children'
p35
(lp36
(iutils
SymbolTable
p37
(dp38
g4
I00
sg5
g2
sg6
I00
sg7
I1
sg8
I-12
sg9
I68
sg10
(dp39
S'a'
(dp40
S'constant'
p41
I00
sg27
g21
sg9
I-8
ssS'i'
(dp42
g41
I00
sg27
S'int'
p43
sS'value'
p44
I0
sg9
I4
ssS'j'
(dp45
g41
I00
sg27
g43
sg44
I0
sg9
I0
ssS'n'
(dp46
g41
I00
sg27
g24
sg9
I-12
sssg35
(lp47
(iutils
SymbolTable
p48
(dp49
g4
I00
sg5
g37
sg6
I00
sg7
I2
sg8
I-4
sg9
I68
sg10
(dp50
S'TEMP_VAR1'
p51
(dp52
g41
I00
sg27
S'int'
p53
sg9
I12
ssS'TEMP_VAR0'
p54
(dp55
g41
I00
sg27
g24
sg9
I8
sssg35
(lp56
(iutils
SymbolTable
p57
(dp58
g4
I00
sg5
g48
sg6
I00
sg7
I3
sg8
I-4
sg9
I68
sg10
(dp59
S'TEMP_VAR3'
p60
(dp61
g41
I00
sg27
g24
sg9
I20
ssS'TEMP_VAR2'
p62
(dp63
g41
I00
sg27
g24
sg9
I16
ssS'TEMP_VAR5'
p64
(dp65
g41
I00
sg27
S'int'
p66
sg9
I28
ssS'TEMP_VAR4'
p67
(dp68
g41
I00
sg27
g53
sg9
I24
ssS'TEMP_VAR7'
p69
(dp70
g41
I00
sg27
S'int'
p71
sg9
I36
ssS'TEMP_VAR6'
p72
(dp73
g41
I00
sg27
g43
sg9
I32
sssg35
(lp74
(iutils
SymbolTable
p75
(dp76
g4
I00
sg5
g57
sg6
I00
sg7
I4
sg8
I-4
sg9
I68
sg10
(dp77
S'TEMP_VAR9'
p78
(dp79
g41
I00
sg27
S'int'
p80
sg9
I48
ssS'TEMP_VAR8'
p81
(dp82
g41
I00
sg27
S'int'
p83
sg9
I40
ssS'temp'
p84
(dp85
g41
I00
sg27
g83
sg9
I44
ssS'TEMP_VAR11'
p86
(dp87
g41
I00
sg27
S'int'
p88
sg9
I56
ssS'TEMP_VAR10'
p89
(dp90
g41
I00
sg27
g43
sg9
I52
ssS'TEMP_VAR13'
p91
(dp92
g41
I00
sg27
S'int'
p93
sg9
I64
ssS'TEMP_VAR12'
p94
(dp95
g41
I00
sg27
g43
sg9
I60
sssg35
(lp96
sS'types'
p97
(dp98
sbasg97
(dp99
sbasg97
(dp100
sbasg97
(dp101
sba(iutils
SymbolTable
p102
(dp103
g4
I00
sg5
g2
sg6
I00
sg7
I5
sg8
I-4
sg9
I36
sg10
(dp104
S'a'
(dp105
g41
I00
sg27
S'Array(5, int)'
p106
sg9
I0
sssg35
(lp107
(iutils
SymbolTable
p108
(dp109
g4
I00
sg5
g102
sg6
I00
sg7
I6
sg8
I-4
sg9
I24
sg10
(dp110
S'i'
(dp111
g41
I00
sg27
g53
sg9
I4
ssS'TEMP_VAR15'
p112
(dp113
g41
I00
sg27
S'int'
p114
sg9
I12
ssS'TEMP_VAR14'
p115
(dp116
g41
I00
sg27
g53
sg9
I8
ssS'TEMP_VAR17'
p117
(dp118
g41
I00
sg27
S'int'
p119
sg9
I20
ssS'TEMP_VAR16'
p120
(dp121
g41
I00
sg27
g53
sg9
I16
sssg35
(lp122
sg97
(dp123
sba(iutils
SymbolTable
p124
(dp125
g4
I00
sg5
g102
sg6
I00
sg7
I7
sg8
I-4
sg9
I36
sg10
(dp126
S'i'
(dp127
g41
I00
sg27
g53
sg9
I24
ssS'TEMP_VAR18'
p128
(dp129
g41
I00
sg27
g53
sg9
I28
ssS'TEMP_VAR19'
p130
(dp131
g41
I00
sg27
S'int'
p132
sg9
I32
sssg35
(lp133
sg97
(dp134
sbasg97
(dp135
sbasg97
(dp136
sbag37
ag48
ag57
ag75
ag102
ag108
ag124
a.