(lp1
(iutils
SymbolTable
p2
(dp3
S'is_for_table'
p4
I00
sS'parent'
p5
NsS'is_func_table'
p6
I00
sS'label'
p7
I0
sS'func_offset'
p8
I-4
sS'offset'
p9
I2
sS'table'
p10
(dp11
S'A'
(dp12
S'func_dict'
p13
(dp14
S'symbol_table'
p15
I1
ssS'func_signature'
p16
(lp17
(lp18
(dp19
S'int'
p20
(lp21
S'm'
aS'n'
asaa(lp22
S'int'
p23
aasS'type'
p24
S'func'
p25
sg9
I0
ssS'main'
p26
(dp27
g13
(dp28
g15
I4
ssg16
(lp29
(lp30
a(lp31
asg24
g25
sg9
I1
sssS'children'
p32
(lp33
(iutils
SymbolTable
p34
(dp35
g4
I00
sg5
g2
sg6
I00
sg7
I1
sg8
I-12
sg9
I28
sg10
(dp36
S'm'
(dp37
S'constant'
p38
I00
sg24
g20
sg9
I-8
ssS'TEMP_VAR3'
p39
(dp40
g38
I00
sg24
g20
sg9
I0
ssS'TEMP_VAR5'
p41
(dp42
g38
I00
sg24
g23
sg9
I8
ssS'TEMP_VAR4'
p43
(dp44
g38
I00
sg24
g20
sg9
I4
ssS'TEMP_VAR6'
p45
(dp46
g38
I00
sg24
g23
sg9
I12
ssS'n'
(dp47
g38
I00
sg24
g20
sg9
I-12
sssg32
(lp48
(iutils
SymbolTable
p49
(dp50
g4
I00
sg5
g34
sg6
I00
sg7
I2
sg8
I-4
sg9
I20
sg10
(dp51
S'TEMP_VAR0'
p52
(dp53
g38
I00
sg24
g20
sg9
I16
sssg32
(lp54
sS'types'
p55
(dp56
sba(iutils
SymbolTable
p57
(dp58
g4
I00
sg5
g34
sg6
I00
sg7
I3
sg8
I-4
sg9
I28
sg10
(dp59
S'TEMP_VAR1'
p60
(dp61
g38
I00
sg24
g20
sg9
I20
ssS'TEMP_VAR2'
p62
(dp63
g38
I00
sg24
g23
sg9
I24
sssg32
(lp64
sg55
(dp65
sbasg55
(dp66
sba(iutils
SymbolTable
p67
(dp68
g4
I00
sg5
g2
sg6
I00
sg7
I4
sg8
I-4
sg9
I20
sg10
(dp69
sg32
(lp70
(iutils
SymbolTable
p71
(dp72
g4
I00
sg5
g67
sg6
I00
sg7
I5
sg8
I-4
sg9
I20
sg10
(dp73
S'i'
(dp74
g38
I00
sg24
S'int'
p75
sg9
I0
ssS'TEMP_VAR7'
p76
(dp77
g38
I00
sg24
g75
sg9
I4
sssg32
(lp78
(iutils
SymbolTable
p79
(dp80
g4
I00
sg5
g71
sg6
I00
sg7
I6
sg8
I-4
sg9
I20
sg10
(dp81
S'TEMP_VAR9'
p82
(dp83
g38
I00
sg24
g23
sg9
I16
ssS'TEMP_VAR8'
p84
(dp85
g38
I00
sg24
g75
sg9
I12
ssS'j'
(dp86
g38
I00
sg24
g75
sg9
I8
sssg32
(lp87
sg55
(dp88
sbasg55
(dp89
sbasg55
(dp90
sbasg55
(dp91
sbag34
ag49
ag57
ag67
ag71
ag79
a.